target datalayout = "e-m:e-p270:32:32-p271:32:32-p272:64:64-i64:64-i128:128-f80:128-n8:16:32:64-S128"
target triple = "x86_64-pc-linux-gnu"

%struct.archive_write_filter = type { i64, ptr, ptr, ptr, ptr, ptr, ptr, ptr, ptr, ptr, ptr, i32, i32, i32, i32 }
%struct.private_data = type { i32, i32, i32, i32, i32, i64, i64, i64, i64, i64, i64, i64, i64, ptr, %struct.ZSTD_outBuffer_s }
%struct.ZSTD_outBuffer_s = type { ptr, i64, i64 }

; Function Attrs: nounwind uwtable
define internal i32 @archive_compressor_zstd_close(ptr noundef %0) #0 {
  %2 = alloca ptr, align 8
  %3 = alloca ptr, align 8
  store ptr %0, ptr %2, align 8, !tbaa !11
  call void @llvm.lifetime.start.p0(i64 8, ptr %3) #8
  %4 = load ptr, ptr %2, align 8, !tbaa !11
  %5 = getelementptr inbounds nuw %struct.archive_write_filter, ptr %4, i32 0, i32 9
  %6 = load ptr, ptr %5, align 8, !tbaa !17
  store ptr %6, ptr %3, align 8, !tbaa !15
  %7 = load ptr, ptr %3, align 8, !tbaa !15
  %8 = getelementptr inbounds nuw %struct.private_data, ptr %7, i32 0, i32 3
  %9 = load i32, ptr %8, align 4, !tbaa !58
  %10 = icmp eq i32 %9, 0
  br i1 %10, label %11, label %14

11:                                               ; preds = %1
  %12 = load ptr, ptr %3, align 8, !tbaa !15
  %13 = getelementptr inbounds nuw %struct.private_data, ptr %12, i32 0, i32 3
  store i32 1, ptr %13, align 4, !tbaa !58
  br label %14

14:                                               ; preds = %11, %1
  %15 = load ptr, ptr %2, align 8, !tbaa !11
  %16 = load ptr, ptr %3, align 8, !tbaa !15
  %17 = call i32 @drive_compressor(ptr noundef %15, ptr noundef %16, i32 noundef 1, ptr noundef null, i64 noundef 0)
  call void @llvm.lifetime.end.p0(i64 8, ptr %3) #8
  ret i32 %17
}