; Function Attrs: nounwind uwtable
define internal range(i32 -30, 1) i32 @archive_compressor_zstd_close(ptr noundef readonly captures(none) %0) #0 {
  %2 = getelementptr inbounds nuw i8, ptr %0, i64 72
  %3 = load ptr, ptr %2, align 8, !tbaa !4
  %4 = getelementptr inbounds nuw i8, ptr %3, i64 12
  %5 = load i32, ptr %4, align 4, !tbaa !45
  %6 = icmp eq i32 %5, 0
  br i1 %6, label %7, label %8

7:                                                ; preds = %1
  store i32 1, ptr %4, align 4, !tbaa !45
  br label %8

8:                                                ; preds = %7, %1
  %9 = tail call fastcc i32 @drive_compressor(ptr noundef nonnull %0, ptr noundef nonnull %3, i32 noundef 1, ptr noundef null, i64 noundef 0)
  ret i32 %9
}